target datalayout = "e-m:e-p270:32:32-p271:32:32-p272:64:64-i64:64-i128:128-f80:128-n8:16:32:64-S128"
target triple = "x86_64-pc-linux-gnu"

%"class.std::__cxx11::basic_string" = type { %"struct.std::__cxx11::basic_string<char>::_Alloc_hider", i64, %union.anon }
%"struct.std::__cxx11::basic_string<char>::_Alloc_hider" = type { ptr }
%union.anon = type { i64, [8 x i8] }
%"class.i18n::phonenumbers::PhoneNumberUtil" = type { %"class.i18n::phonenumbers::Singleton", %"class.boost::scoped_ptr", %"class.boost::scoped_ptr.1", %"class.boost::scoped_ptr.2", %"class.boost::scoped_ptr.3", %"class.boost::scoped_ptr.4", %"class.boost::scoped_ptr.5", %"class.boost::scoped_ptr.6" }
%"class.i18n::phonenumbers::Singleton" = type { ptr }
%"class.boost::scoped_ptr" = type { ptr }
%"class.boost::scoped_ptr.1" = type { ptr }
%"class.boost::scoped_ptr.2" = type { ptr }
%"class.boost::scoped_ptr.3" = type { ptr }
%"class.boost::scoped_ptr.4" = type { ptr }
%"class.boost::scoped_ptr.5" = type { ptr }
%"class.boost::scoped_ptr.6" = type { ptr }
%"struct.std::_Rb_tree_key_compare" = type { %"struct.std::less" }
%"struct.std::less" = type { i8 }
%"struct.std::_Rb_tree_header" = type { %"struct.std::_Rb_tree_node_base", i64 }
%"struct.std::_Rb_tree_node_base" = type { i32, ptr, ptr, ptr }
%"class.i18n::phonenumbers::PhoneNumberRegExpsAndMappings" = type { %"class.std::__cxx11::basic_string", %"class.std::__cxx11::basic_string", %"class.std::__cxx11::basic_string", %"class.std::__cxx11::basic_string", %"class.std::__cxx11::basic_string", %"class.std::__cxx11::basic_string", %"class.boost::scoped_ptr.7", %"class.boost::scoped_ptr.8", %"class.std::map", %"class.std::map", %"class.std::map", %"class.std::map", %"class.std::map", %"class.std::set", %"class.std::set", %"class.boost::scoped_ptr.16", %"class.boost::scoped_ptr.16", %"class.boost::scoped_ptr.16", %"class.boost::scoped_ptr.16", %"class.boost::scoped_ptr.16", %"class.boost::scoped_ptr.16", %"class.boost::scoped_ptr.16", %"class.boost::scoped_ptr.16", %"class.std::__cxx11::basic_string", %"class.boost::scoped_ptr.16", %"class.boost::scoped_ptr.16", %"class.boost::scoped_ptr.16", %"class.boost::scoped_ptr.16", %"class.boost::scoped_ptr.16", %"class.boost::scoped_ptr.16", %"class.std::unique_ptr", %"class.std::unique_ptr" }
%"class.boost::scoped_ptr.7" = type { ptr }
%"class.boost::scoped_ptr.8" = type { ptr }
%"class.std::map" = type { %"class.std::_Rb_tree" }
%"class.std::_Rb_tree" = type { %"struct.std::_Rb_tree<int, std::pair<const int, char>, std::_Select1st<std::pair<const int, char>>, std::less<int>>::_Rb_tree_impl" }
%"struct.std::_Rb_tree<int, std::pair<const int, char>, std::_Select1st<std::pair<const int, char>>, std::less<int>>::_Rb_tree_impl" = type { %"struct.std::_Rb_tree_key_compare", %"struct.std::_Rb_tree_header" }
%"class.std::set" = type { %"class.std::_Rb_tree.12" }
%"class.std::_Rb_tree.12" = type { %"struct.std::_Rb_tree<int, int, std::_Identity<int>, std::less<int>>::_Rb_tree_impl" }
%"struct.std::_Rb_tree<int, int, std::_Identity<int>, std::less<int>>::_Rb_tree_impl" = type { %"struct.std::_Rb_tree_key_compare", %"struct.std::_Rb_tree_header" }
%"class.boost::scoped_ptr.16" = type { ptr }
%"class.std::unique_ptr" = type { %"struct.std::__uniq_ptr_data" }
%"struct.std::__uniq_ptr_data" = type { %"class.std::__uniq_ptr_impl" }
%"class.std::__uniq_ptr_impl" = type { %"class.std::tuple" }
%"class.std::tuple" = type { %"struct.std::_Tuple_impl" }
%"struct.std::_Tuple_impl" = type { %"struct.std::_Head_base.18" }
%"struct.std::_Head_base.18" = type { ptr }

; Function Attrs: mustprogress uwtable
define linkonce_odr dso_local noundef zeroext i1 @_ZNK4i18n12phonenumbers6RegExp9FullMatchERKNSt7__cxx1112basic_stringIcSt11char_traitsIcESaIcEEE(ptr noundef nonnull align 8 dereferenceable(8) %0, ptr noundef nonnull align 8 dereferenceable(32) %1) #4 comdat align 2 {
  %3 = alloca ptr, align 8
  %4 = alloca ptr, align 8
  store ptr %0, ptr %3, align 8
  store ptr %1, ptr %4, align 8
  %5 = load ptr, ptr %3, align 8
  %6 = load ptr, ptr %4, align 8
  %7 = load ptr, ptr %5, align 8
  %8 = getelementptr inbounds ptr, ptr %7, i64 3
  %9 = load ptr, ptr %8, align 8
  %10 = call noundef zeroext i1 %9(ptr noundef nonnull align 8 dereferenceable(8) %5, ptr noundef nonnull align 8 dereferenceable(32) %6, i1 noundef zeroext true, ptr noundef null)
  ret i1 %10
}

; Function Attrs: mustprogress nounwind uwtable
define linkonce_odr dso_local noundef ptr @_ZNK5boost10scoped_ptrIKN4i18n12phonenumbers6RegExpEEptEv(ptr noundef nonnull align 8 dereferenceable(8) %0) #5 comdat align 2 {
  %2 = alloca ptr, align 8
  store ptr %0, ptr %2, align 8
  %3 = load ptr, ptr %2, align 8
  %4 = getelementptr inbounds %"class.boost::scoped_ptr.16", ptr %3, i32 0, i32 0
  %5 = load ptr, ptr %4, align 8
  ret ptr %5
}

; Function Attrs: mustprogress nounwind uwtable
define linkonce_odr dso_local noundef ptr @_ZNK5boost10scoped_ptrIN4i18n12phonenumbers29PhoneNumberRegExpsAndMappingsEEptEv(ptr noundef nonnull align 8 dereferenceable(8) %0) #5 comdat align 2 {
  %2 = alloca ptr, align 8
  store ptr %0, ptr %2, align 8
  %3 = load ptr, ptr %2, align 8
  %4 = getelementptr inbounds %"class.boost::scoped_ptr.2", ptr %3, i32 0, i32 0
  %5 = load ptr, ptr %4, align 8
  ret ptr %5
}

; Function Attrs: mustprogress uwtable
define dso_local noundef zeroext i1 @_ZNK4i18n12phonenumbers15PhoneNumberUtil19IsViablePhoneNumberERKNSt7__cxx1112basic_stringIcSt11char_traitsIcESaIcEEE(ptr noundef nonnull align 8 dereferenceable(64) %0, ptr noundef nonnull align 8 dereferenceable(32) %1) #4 align 2 {
  %3 = alloca i1, align 1
  %4 = alloca ptr, align 8
  %5 = alloca ptr, align 8
  store ptr %0, ptr %4, align 8
  store ptr %1, ptr %5, align 8
  %6 = load ptr, ptr %4, align 8
  %7 = load ptr, ptr %5, align 8
  %8 = call noundef i64 @_ZNKSt7__cxx1112basic_stringIcSt11char_traitsIcESaIcEE6lengthEv(ptr noundef nonnull align 8 dereferenceable(32) %7) #3
  %9 = icmp ult i64 %8, 2
  br i1 %9, label %10, label %11

10:                                               ; preds = %2
  store i1 false, ptr %3, align 1
  br label %18

11:                                               ; preds = %2
  %12 = getelementptr inbounds %"class.i18n::phonenumbers::PhoneNumberUtil", ptr %6, i32 0, i32 3
  %13 = call noundef ptr @_ZNK5boost10scoped_ptrIN4i18n12phonenumbers29PhoneNumberRegExpsAndMappingsEEptEv(ptr noundef nonnull align 8 dereferenceable(8) %12) #3
  %14 = getelementptr inbounds %"class.i18n::phonenumbers::PhoneNumberRegExpsAndMappings", ptr %13, i32 0, i32 25
  %15 = call noundef ptr @_ZNK5boost10scoped_ptrIKN4i18n12phonenumbers6RegExpEEptEv(ptr noundef nonnull align 8 dereferenceable(8) %14) #3
  %16 = load ptr, ptr %5, align 8
  %17 = call noundef zeroext i1 @_ZNK4i18n12phonenumbers6RegExp9FullMatchERKNSt7__cxx1112basic_stringIcSt11char_traitsIcESaIcEEE(ptr noundef nonnull align 8 dereferenceable(8) %15, ptr noundef nonnull align 8 dereferenceable(32) %16)
  store i1 %17, ptr %3, align 1
  br label %18

18:                                               ; preds = %11, %10
  %19 = load i1, ptr %3, align 1
  ret i1 %19
}

; Function Attrs: mustprogress uwtable
define dso_local noundef zeroext i1 @_ZNK4i18n12phonenumbers15PhoneNumberUtil13IsAlphaNumberERKNSt7__cxx1112basic_stringIcSt11char_traitsIcESaIcEEE(ptr noundef nonnull align 8 dereferenceable(64) %0, ptr noundef nonnull align 8 dereferenceable(32) %1) #4 align 2 personality ptr @__gxx_personality_v0 {
  %3 = alloca i1, align 1
  %4 = alloca ptr, align 8
  %5 = alloca ptr, align 8
  %6 = alloca %"class.std::__cxx11::basic_string", align 8
  %7 = alloca %"class.std::__cxx11::basic_string", align 8
  %8 = alloca ptr, align 8
  %9 = alloca i32, align 4
  store ptr %0, ptr %4, align 8
  store ptr %1, ptr %5, align 8
  %10 = load ptr, ptr %4, align 8
  %11 = load ptr, ptr %5, align 8
  %12 = call noundef zeroext i1 @_ZNK4i18n12phonenumbers15PhoneNumberUtil19IsViablePhoneNumberERKNSt7__cxx1112basic_stringIcSt11char_traitsIcESaIcEEE(ptr noundef nonnull align 8 dereferenceable(64) %10, ptr noundef nonnull align 8 dereferenceable(32) %11)
  br i1 %12, label %14, label %13

13:                                               ; preds = %2
  store i1 false, ptr %3, align 1
  br label %28

14:                                               ; preds = %2
  %15 = load ptr, ptr %5, align 8
  call void @_ZNSt7__cxx1112basic_stringIcSt11char_traitsIcESaIcEEC1ERKS4_(ptr noundef nonnull align 8 dereferenceable(32) %6, ptr noundef nonnull align 8 dereferenceable(32) %15)
  call void @_ZNSt7__cxx1112basic_stringIcSt11char_traitsIcESaIcEEC1Ev(ptr noundef nonnull align 8 dereferenceable(32) %7) #3
  %16 = invoke noundef zeroext i1 @_ZNK4i18n12phonenumbers15PhoneNumberUtil19MaybeStripExtensionEPNSt7__cxx1112basic_stringIcSt11char_traitsIcESaIcEEES8_(ptr noundef nonnull align 8 dereferenceable(64) %10, ptr noundef %6, ptr noundef %7)
          to label %17 unwind label %24

17:                                               ; preds = %14
  %18 = getelementptr inbounds %"class.i18n::phonenumbers::PhoneNumberUtil", ptr %10, i32 0, i32 3
  %19 = call noundef ptr @_ZNK5boost10scoped_ptrIN4i18n12phonenumbers29PhoneNumberRegExpsAndMappingsEEptEv(ptr noundef nonnull align 8 dereferenceable(8) %18) #3
  %20 = getelementptr inbounds %"class.i18n::phonenumbers::PhoneNumberRegExpsAndMappings", ptr %19, i32 0, i32 26
  %21 = call noundef ptr @_ZNK5boost10scoped_ptrIKN4i18n12phonenumbers6RegExpEEptEv(ptr noundef nonnull align 8 dereferenceable(8) %20) #3
  %22 = invoke noundef zeroext i1 @_ZNK4i18n12phonenumbers6RegExp9FullMatchERKNSt7__cxx1112basic_stringIcSt11char_traitsIcESaIcEEE(ptr noundef nonnull align 8 dereferenceable(8) %21, ptr noundef nonnull align 8 dereferenceable(32) %6)
          to label %23 unwind label %24

23:                                               ; preds = %17
  store i1 %22, ptr %3, align 1
  call void @_ZNSt7__cxx1112basic_stringIcSt11char_traitsIcESaIcEED1Ev(ptr noundef nonnull align 8 dereferenceable(32) %7) #3
  call void @_ZNSt7__cxx1112basic_stringIcSt11char_traitsIcESaIcEED1Ev(ptr noundef nonnull align 8 dereferenceable(32) %6) #3
  br label %28

24:                                               ; preds = %17, %14
  %25 = landingpad { ptr, i32 }
          cleanup
  %26 = extractvalue { ptr, i32 } %25, 0
  store ptr %26, ptr %8, align 8
  %27 = extractvalue { ptr, i32 } %25, 1
  store i32 %27, ptr %9, align 4
  call void @_ZNSt7__cxx1112basic_stringIcSt11char_traitsIcESaIcEED1Ev(ptr noundef nonnull align 8 dereferenceable(32) %7) #3
  call void @_ZNSt7__cxx1112basic_stringIcSt11char_traitsIcESaIcEED1Ev(ptr noundef nonnull align 8 dereferenceable(32) %6) #3
  br label %30

28:                                               ; preds = %23, %13
  %29 = load i1, ptr %3, align 1
  ret i1 %29

30:                                               ; preds = %24
  %31 = load ptr, ptr %8, align 8
  %32 = load i32, ptr %9, align 4
  %33 = insertvalue { ptr, i32 } poison, ptr %31, 0
  %34 = insertvalue { ptr, i32 } %33, i32 %32, 1
  resume { ptr, i32 } %34
}