; Function Attrs: mustprogress uwtable
define dso_local noundef zeroext i1 @_ZNK4i18n12phonenumbers15PhoneNumberUtil13IsAlphaNumberERKNSt7__cxx1112basic_stringIcSt11char_traitsIcESaIcEEE(ptr nocapture noundef nonnull readonly align 8 dereferenceable(64) %0, ptr noundef nonnull align 8 dereferenceable(32) %1) local_unnamed_addr #4 align 2 personality ptr @__gxx_personality_v0 {
  %3 = alloca %"class.std::__cxx11::basic_string", align 8
  %4 = alloca %"class.std::__cxx11::basic_string", align 8
  %5 = tail call noundef i64 @_ZNKSt7__cxx1112basic_stringIcSt11char_traitsIcESaIcEE6lengthEv(ptr noundef nonnull align 8 dereferenceable(32) %1) #26
  %6 = icmp ult i64 %5, 2
  br i1 %6, label %_ZNK4i18n12phonenumbers15PhoneNumberUtil19IsViablePhoneNumberERKNSt7__cxx1112basic_stringIcSt11char_traitsIcESaIcEEE.exit.thread, label %_ZNK4i18n12phonenumbers15PhoneNumberUtil19IsViablePhoneNumberERKNSt7__cxx1112basic_stringIcSt11char_traitsIcESaIcEEE.exit

_ZNK4i18n12phonenumbers15PhoneNumberUtil19IsViablePhoneNumberERKNSt7__cxx1112basic_stringIcSt11char_traitsIcESaIcEEE.exit: ; preds = %2
  %7 = getelementptr inbounds i8, ptr %0, i64 24
  %8 = load ptr, ptr %7, align 8
  %9 = getelementptr inbounds i8, ptr %8, i64 648
  %10 = load ptr, ptr %9, align 8
  %11 = load ptr, ptr %10, align 8
  %12 = getelementptr inbounds i8, ptr %11, i64 24
  %13 = load ptr, ptr %12, align 8
  %14 = tail call noundef zeroext i1 %13(ptr noundef nonnull align 8 dereferenceable(8) %10, ptr noundef nonnull align 8 dereferenceable(32) %1, i1 noundef zeroext true, ptr noundef null)
  br i1 %14, label %15, label %_ZNK4i18n12phonenumbers15PhoneNumberUtil19IsViablePhoneNumberERKNSt7__cxx1112basic_stringIcSt11char_traitsIcESaIcEEE.exit.thread

15:                                               ; preds = %_ZNK4i18n12phonenumbers15PhoneNumberUtil19IsViablePhoneNumberERKNSt7__cxx1112basic_stringIcSt11char_traitsIcESaIcEEE.exit
  call void @_ZNSt7__cxx1112basic_stringIcSt11char_traitsIcESaIcEEC1ERKS4_(ptr noundef nonnull align 8 dereferenceable(32) %3, ptr noundef nonnull align 8 dereferenceable(32) %1)
  call void @_ZNSt7__cxx1112basic_stringIcSt11char_traitsIcESaIcEEC1Ev(ptr noundef nonnull align 8 dereferenceable(32) %4) #26
  %16 = invoke noundef zeroext i1 @_ZNK4i18n12phonenumbers15PhoneNumberUtil19MaybeStripExtensionEPNSt7__cxx1112basic_stringIcSt11char_traitsIcESaIcEEES8_(ptr noundef nonnull align 8 dereferenceable(64) %0, ptr noundef nonnull %3, ptr noundef nonnull %4)
          to label %17 unwind label %25

17:                                               ; preds = %15
  %18 = load ptr, ptr %7, align 8
  %19 = getelementptr inbounds i8, ptr %18, i64 656
  %20 = load ptr, ptr %19, align 8
  %21 = load ptr, ptr %20, align 8
  %22 = getelementptr inbounds i8, ptr %21, i64 24
  %23 = load ptr, ptr %22, align 8
  %24 = invoke noundef zeroext i1 %23(ptr noundef nonnull align 8 dereferenceable(8) %20, ptr noundef nonnull align 8 dereferenceable(32) %3, i1 noundef zeroext true, ptr noundef null)
          to label %_ZNK4i18n12phonenumbers6RegExp9FullMatchERKNSt7__cxx1112basic_stringIcSt11char_traitsIcESaIcEEE.exit unwind label %25

_ZNK4i18n12phonenumbers6RegExp9FullMatchERKNSt7__cxx1112basic_stringIcSt11char_traitsIcESaIcEEE.exit: ; preds = %17
  call void @_ZNSt7__cxx1112basic_stringIcSt11char_traitsIcESaIcEED1Ev(ptr noundef nonnull align 8 dereferenceable(32) %4) #26
  call void @_ZNSt7__cxx1112basic_stringIcSt11char_traitsIcESaIcEED1Ev(ptr noundef nonnull align 8 dereferenceable(32) %3) #26
  br label %_ZNK4i18n12phonenumbers15PhoneNumberUtil19IsViablePhoneNumberERKNSt7__cxx1112basic_stringIcSt11char_traitsIcESaIcEEE.exit.thread

25:                                               ; preds = %17, %15
  %26 = landingpad { ptr, i32 }
          cleanup
  call void @_ZNSt7__cxx1112basic_stringIcSt11char_traitsIcESaIcEED1Ev(ptr noundef nonnull align 8 dereferenceable(32) %4) #26
  call void @_ZNSt7__cxx1112basic_stringIcSt11char_traitsIcESaIcEED1Ev(ptr noundef nonnull align 8 dereferenceable(32) %3) #26
  resume { ptr, i32 } %26

_ZNK4i18n12phonenumbers15PhoneNumberUtil19IsViablePhoneNumberERKNSt7__cxx1112basic_stringIcSt11char_traitsIcESaIcEEE.exit.thread: ; preds = %2, %_ZNK4i18n12phonenumbers15PhoneNumberUtil19IsViablePhoneNumberERKNSt7__cxx1112basic_stringIcSt11char_traitsIcESaIcEEE.exit, %_ZNK4i18n12phonenumbers6RegExp9FullMatchERKNSt7__cxx1112basic_stringIcSt11char_traitsIcESaIcEEE.exit
  %.0 = phi i1 [ %24, %_ZNK4i18n12phonenumbers6RegExp9FullMatchERKNSt7__cxx1112basic_stringIcSt11char_traitsIcESaIcEEE.exit ], [ false, %_ZNK4i18n12phonenumbers15PhoneNumberUtil19IsViablePhoneNumberERKNSt7__cxx1112basic_stringIcSt11char_traitsIcESaIcEEE.exit ], [ false, %2 ]
  ret i1 %.0
}